target datalayout = "e-m:e-p270:32:32-p271:32:32-p272:64:64-i64:64-i128:128-f80:128-n8:16:32:64-S128"
target triple = "x86_64-pc-linux-gnu"

%struct.TValue = type { %union.Value, i8 }
%union.Value = type { ptr }
%struct.lua_State = type { ptr, i8, i8, i8, i8, i16, %union.StkIdRel, ptr, ptr, %union.StkIdRel, %union.StkIdRel, ptr, %union.StkIdRel, ptr, ptr, ptr, %struct.CallInfo, ptr, i64, i32, i32, i32, i32, i32, %struct.anon.2 }
%union.StkIdRel = type { ptr }
%struct.CallInfo = type { %union.StkIdRel, %union.StkIdRel, ptr, ptr, %union.anon, %union.anon.1, i32 }
%union.anon = type { %struct.anon.0 }
%struct.anon.0 = type { ptr, i64, i64 }
%union.anon.1 = type { i32 }
%struct.anon.2 = type { i32, i32 }
%union.StackValue = type { %struct.TValue }

; Function Attrs: nounwind uwtable
define hidden i32 @luaE_resetthread(ptr noundef %0, i32 noundef %1) #0 {
  %3 = alloca ptr, align 8
  %4 = alloca i32, align 4
  %5 = alloca ptr, align 8
  store ptr %0, ptr %3, align 8, !tbaa !22
  store i32 %1, ptr %4, align 4, !tbaa !54
  call void @llvm.lifetime.start.p0(i64 8, ptr %5) #6
  %6 = load ptr, ptr %3, align 8, !tbaa !22
  %7 = getelementptr inbounds nuw %struct.lua_State, ptr %6, i32 0, i32 16
  %8 = load ptr, ptr %3, align 8, !tbaa !22
  %9 = getelementptr inbounds nuw %struct.lua_State, ptr %8, i32 0, i32 8
  store ptr %7, ptr %9, align 8, !tbaa !25
  store ptr %7, ptr %5, align 8, !tbaa !23
  %10 = load ptr, ptr %3, align 8, !tbaa !22
  %11 = getelementptr inbounds nuw %struct.lua_State, ptr %10, i32 0, i32 10
  %12 = load ptr, ptr %11, align 8, !tbaa !34
  %13 = getelementptr inbounds nuw %struct.TValue, ptr %12, i32 0, i32 1
  store i8 0, ptr %13, align 8, !tbaa !34
  %14 = load ptr, ptr %3, align 8, !tbaa !22
  %15 = getelementptr inbounds nuw %struct.lua_State, ptr %14, i32 0, i32 10
  %16 = load ptr, ptr %15, align 8, !tbaa !34
  %17 = load ptr, ptr %5, align 8, !tbaa !23
  %18 = getelementptr inbounds nuw %struct.CallInfo, ptr %17, i32 0, i32 0
  store ptr %16, ptr %18, align 8, !tbaa !34
  %19 = load ptr, ptr %5, align 8, !tbaa !23
  %20 = getelementptr inbounds nuw %struct.CallInfo, ptr %19, i32 0, i32 6
  store i32 32768, ptr %20, align 4, !tbaa !55
  %21 = load i32, ptr %4, align 4, !tbaa !54
  %22 = icmp eq i32 %21, 1
  br i1 %22, label %23, label %24

23:                                               ; preds = %2
  store i32 0, ptr %4, align 4, !tbaa !54
  br label %24

24:                                               ; preds = %23, %2
  %25 = load ptr, ptr %3, align 8, !tbaa !22
  %26 = getelementptr inbounds nuw %struct.lua_State, ptr %25, i32 0, i32 3
  store i8 0, ptr %26, align 2, !tbaa !51
  %27 = load ptr, ptr %3, align 8, !tbaa !22
  %28 = load i32, ptr %4, align 4, !tbaa !54
  %29 = call i32 @luaD_closeprotected(ptr noundef %27, i64 noundef 1, i32 noundef %28)
  store i32 %29, ptr %4, align 4, !tbaa !54
  %30 = load i32, ptr %4, align 4, !tbaa !54
  %31 = icmp ne i32 %30, 0
  br i1 %31, label %32, label %39

32:                                               ; preds = %24
  %33 = load ptr, ptr %3, align 8, !tbaa !22
  %34 = load i32, ptr %4, align 4, !tbaa !54
  %35 = load ptr, ptr %3, align 8, !tbaa !22
  %36 = getelementptr inbounds nuw %struct.lua_State, ptr %35, i32 0, i32 10
  %37 = load ptr, ptr %36, align 8, !tbaa !34
  %38 = getelementptr inbounds %union.StackValue, ptr %37, i64 1
  call void @luaD_seterrorobj(ptr noundef %33, i32 noundef %34, ptr noundef %38)
  br label %46

39:                                               ; preds = %24
  %40 = load ptr, ptr %3, align 8, !tbaa !22
  %41 = getelementptr inbounds nuw %struct.lua_State, ptr %40, i32 0, i32 10
  %42 = load ptr, ptr %41, align 8, !tbaa !34
  %43 = getelementptr inbounds %union.StackValue, ptr %42, i64 1
  %44 = load ptr, ptr %3, align 8, !tbaa !22
  %45 = getelementptr inbounds nuw %struct.lua_State, ptr %44, i32 0, i32 6
  store ptr %43, ptr %45, align 8, !tbaa !34
  br label %46

46:                                               ; preds = %39, %32
  %47 = load ptr, ptr %3, align 8, !tbaa !22
  %48 = getelementptr inbounds nuw %struct.lua_State, ptr %47, i32 0, i32 6
  %49 = load ptr, ptr %48, align 8, !tbaa !34
  %50 = getelementptr inbounds %union.StackValue, ptr %49, i64 20
  %51 = load ptr, ptr %5, align 8, !tbaa !23
  %52 = getelementptr inbounds nuw %struct.CallInfo, ptr %51, i32 0, i32 1
  store ptr %50, ptr %52, align 8, !tbaa !34
  %53 = load ptr, ptr %3, align 8, !tbaa !22
  %54 = load ptr, ptr %5, align 8, !tbaa !23
  %55 = getelementptr inbounds nuw %struct.CallInfo, ptr %54, i32 0, i32 1
  %56 = load ptr, ptr %55, align 8, !tbaa !34
  %57 = load ptr, ptr %3, align 8, !tbaa !22
  %58 = getelementptr inbounds nuw %struct.lua_State, ptr %57, i32 0, i32 10
  %59 = load ptr, ptr %58, align 8, !tbaa !34
  %60 = ptrtoint ptr %56 to i64
  %61 = ptrtoint ptr %59 to i64
  %62 = sub i64 %60, %61
  %63 = sdiv exact i64 %62, 16
  %64 = trunc i64 %63 to i32
  %65 = call i32 @luaD_reallocstack(ptr noundef %53, i32 noundef %64, i32 noundef 0)
  %66 = load i32, ptr %4, align 4, !tbaa !54
  call void @llvm.lifetime.end.p0(i64 8, ptr %5) #6
  ret i32 %66
}

; Function Attrs: nounwind uwtable
define dso_local i32 @lua_closethread(ptr noundef %0, ptr noundef %1) #0 {
  %3 = alloca ptr, align 8
  %4 = alloca ptr, align 8
  %5 = alloca i32, align 4
  store ptr %0, ptr %3, align 8, !tbaa !22
  store ptr %1, ptr %4, align 8, !tbaa !22
  call void @llvm.lifetime.start.p0(i64 4, ptr %5) #6
  %6 = load ptr, ptr %4, align 8, !tbaa !22
  %7 = icmp ne ptr %6, null
  br i1 %7, label %8, label %13

8:                                                ; preds = %2
  %9 = load ptr, ptr %4, align 8, !tbaa !22
  %10 = getelementptr inbounds nuw %struct.lua_State, ptr %9, i32 0, i32 19
  %11 = load i32, ptr %10, align 8, !tbaa !36
  %12 = and i32 %11, 65535
  br label %14

13:                                               ; preds = %2
  br label %14

14:                                               ; preds = %13, %8
  %15 = phi i32 [ %12, %8 ], [ 0, %13 ]
  %16 = load ptr, ptr %3, align 8, !tbaa !22
  %17 = getelementptr inbounds nuw %struct.lua_State, ptr %16, i32 0, i32 19
  store i32 %15, ptr %17, align 8, !tbaa !36
  %18 = load ptr, ptr %3, align 8, !tbaa !22
  %19 = load ptr, ptr %3, align 8, !tbaa !22
  %20 = getelementptr inbounds nuw %struct.lua_State, ptr %19, i32 0, i32 3
  %21 = load i8, ptr %20, align 2, !tbaa !51
  %22 = zext i8 %21 to i32
  %23 = call i32 @luaE_resetthread(ptr noundef %18, i32 noundef %22)
  store i32 %23, ptr %5, align 4, !tbaa !54
  %24 = load i32, ptr %5, align 4, !tbaa !54
  call void @llvm.lifetime.end.p0(i64 4, ptr %5) #6
  ret i32 %24
}