; Function Attrs: nounwind uwtable
define dso_local i32 @lua_closethread(ptr noundef initializes((176, 180)) %0, ptr noundef readonly captures(address_is_null) %1) local_unnamed_addr #2 {
  %.not = icmp eq ptr %1, null
  br i1 %.not, label %7, label %3

3:                                                ; preds = %2
  %4 = getelementptr inbounds nuw i8, ptr %1, i64 176
  %5 = load i32, ptr %4, align 8, !tbaa !32
  %6 = and i32 %5, 65535
  br label %7

7:                                                ; preds = %2, %3
  %8 = phi i32 [ %6, %3 ], [ 0, %2 ]
  %9 = getelementptr inbounds nuw i8, ptr %0, i64 176
  store i32 %8, ptr %9, align 8, !tbaa !32
  %10 = getelementptr inbounds nuw i8, ptr %0, i64 10
  %11 = load i8, ptr %10, align 2, !tbaa !43
  %12 = getelementptr inbounds nuw i8, ptr %0, i64 96
  %13 = getelementptr inbounds nuw i8, ptr %0, i64 32
  store ptr %12, ptr %13, align 8, !tbaa !19
  %14 = getelementptr inbounds nuw i8, ptr %0, i64 48
  %15 = load ptr, ptr %14, align 8, !tbaa !30
  %16 = getelementptr inbounds nuw i8, ptr %15, i64 8
  store i8 0, ptr %16, align 8, !tbaa !30
  %17 = load ptr, ptr %14, align 8, !tbaa !30
  store ptr %17, ptr %12, align 8, !tbaa !30
  %18 = getelementptr inbounds nuw i8, ptr %0, i64 156
  store i32 32768, ptr %18, align 4, !tbaa !48
  %19 = icmp eq i8 %11, 1
  %narrow = select i1 %19, i8 0, i8 %11
  %spec.store.select.i = zext i8 %narrow to i32
  store i8 0, ptr %10, align 2, !tbaa !43
  %20 = tail call i32 @luaD_closeprotected(ptr noundef %0, i64 noundef 1, i32 noundef %spec.store.select.i) #8
  %.not.i = icmp eq i32 %20, 0
  %21 = load ptr, ptr %14, align 8, !tbaa !30
  %22 = getelementptr inbounds nuw i8, ptr %21, i64 16
  br i1 %.not.i, label %24, label %23

23:                                               ; preds = %7
  tail call void @luaD_seterrorobj(ptr noundef nonnull %0, i32 noundef %20, ptr noundef nonnull %22) #8
  %.phi.trans.insert.i = getelementptr inbounds nuw i8, ptr %0, i64 16
  %.pre.i = load ptr, ptr %.phi.trans.insert.i, align 8, !tbaa !30
  %.pre21.i = load ptr, ptr %14, align 8, !tbaa !30
  br label %luaE_resetthread.exit

24:                                               ; preds = %7
  %25 = getelementptr inbounds nuw i8, ptr %0, i64 16
  store ptr %22, ptr %25, align 8, !tbaa !30
  br label %luaE_resetthread.exit

luaE_resetthread.exit:                            ; preds = %23, %24
  %26 = phi ptr [ %21, %24 ], [ %.pre21.i, %23 ]
  %27 = phi ptr [ %22, %24 ], [ %.pre.i, %23 ]
  %28 = getelementptr inbounds nuw i8, ptr %27, i64 320
  %29 = getelementptr inbounds nuw i8, ptr %0, i64 104
  store ptr %28, ptr %29, align 8, !tbaa !30
  %30 = ptrtoint ptr %28 to i64
  %31 = ptrtoint ptr %26 to i64
  %32 = sub i64 %30, %31
  %33 = lshr exact i64 %32, 4
  %34 = trunc i64 %33 to i32
  %35 = tail call i32 @luaD_reallocstack(ptr noundef nonnull %0, i32 noundef %34, i32 noundef 0) #8
  ret i32 %20
}